target datalayout = "e-m:e-p270:32:32-p271:32:32-p272:64:64-i64:64-i128:128-f80:128-n8:16:32:64-S128"
target triple = "x86_64-pc-linux-gnu"

%struct.Vec_Int_t_ = type { i32, i32, ptr }
%struct.Vec_Str_t_ = type { i32, i32, ptr }

@.str = private unnamed_addr constant [4 x i8] c"%s\0A\00", align 1

; Function Attrs: inlinehint nounwind uwtable
define internal void @Vec_StrGrow(ptr noundef %0, i32 noundef %1) #2 {
  %3 = alloca ptr, align 8
  %4 = alloca i32, align 4
  store ptr %0, ptr %3, align 8, !tbaa !19
  store i32 %1, ptr %4, align 4, !tbaa !10
  %5 = load ptr, ptr %3, align 8, !tbaa !19
  %6 = getelementptr inbounds nuw %struct.Vec_Str_t_, ptr %5, i32 0, i32 0
  %7 = load i32, ptr %6, align 8, !tbaa !114
  %8 = load i32, ptr %4, align 4, !tbaa !10
  %9 = icmp sge i32 %7, %8
  br i1 %9, label %10, label %11

10:                                               ; preds = %2
  br label %36

11:                                               ; preds = %2
  %12 = load ptr, ptr %3, align 8, !tbaa !19
  %13 = getelementptr inbounds nuw %struct.Vec_Str_t_, ptr %12, i32 0, i32 2
  %14 = load ptr, ptr %13, align 8, !tbaa !26
  %15 = icmp ne ptr %14, null
  br i1 %15, label %16, label %24

16:                                               ; preds = %11
  %17 = load ptr, ptr %3, align 8, !tbaa !19
  %18 = getelementptr inbounds nuw %struct.Vec_Str_t_, ptr %17, i32 0, i32 2
  %19 = load ptr, ptr %18, align 8, !tbaa !26
  %20 = load i32, ptr %4, align 4, !tbaa !10
  %21 = sext i32 %20 to i64
  %22 = mul i64 1, %21
  %23 = call ptr @realloc(ptr noundef %19, i64 noundef %22) #13
  br label %29

24:                                               ; preds = %11
  %25 = load i32, ptr %4, align 4, !tbaa !10
  %26 = sext i32 %25 to i64
  %27 = mul i64 1, %26
  %28 = call noalias ptr @malloc(i64 noundef %27) #12
  br label %29

29:                                               ; preds = %24, %16
  %30 = phi ptr [ %23, %16 ], [ %28, %24 ]
  %31 = load ptr, ptr %3, align 8, !tbaa !19
  %32 = getelementptr inbounds nuw %struct.Vec_Str_t_, ptr %31, i32 0, i32 2
  store ptr %30, ptr %32, align 8, !tbaa !26
  %33 = load i32, ptr %4, align 4, !tbaa !10
  %34 = load ptr, ptr %3, align 8, !tbaa !19
  %35 = getelementptr inbounds nuw %struct.Vec_Str_t_, ptr %34, i32 0, i32 0
  store i32 %33, ptr %35, align 8, !tbaa !114
  br label %36

36:                                               ; preds = %29, %10
  ret void
}

; Function Attrs: inlinehint nounwind uwtable
define internal ptr @Vec_StrArray(ptr noundef %0) #2 {
  %2 = alloca ptr, align 8
  store ptr %0, ptr %2, align 8, !tbaa !19
  %3 = load ptr, ptr %2, align 8, !tbaa !19
  %4 = getelementptr inbounds nuw %struct.Vec_Str_t_, ptr %3, i32 0, i32 2
  %5 = load ptr, ptr %4, align 8, !tbaa !26
  ret ptr %5
}

; Function Attrs: inlinehint nounwind uwtable
define internal void @Vec_StrWriteEntry(ptr noundef %0, i32 noundef %1, i8 noundef signext %2) #2 {
  %4 = alloca ptr, align 8
  %5 = alloca i32, align 4
  %6 = alloca i8, align 1
  store ptr %0, ptr %4, align 8, !tbaa !19
  store i32 %1, ptr %5, align 4, !tbaa !10
  store i8 %2, ptr %6, align 1, !tbaa !22
  %7 = load i8, ptr %6, align 1, !tbaa !22
  %8 = load ptr, ptr %4, align 8, !tbaa !19
  %9 = getelementptr inbounds nuw %struct.Vec_Str_t_, ptr %8, i32 0, i32 2
  %10 = load ptr, ptr %9, align 8, !tbaa !26
  %11 = load i32, ptr %5, align 4, !tbaa !10
  %12 = sext i32 %11 to i64
  %13 = getelementptr inbounds i8, ptr %10, i64 %12
  store i8 %7, ptr %13, align 1, !tbaa !22
  ret void
}

; Function Attrs: inlinehint nounwind uwtable
define internal i32 @Abc_LitIsCompl(i32 noundef %0) #2 {
  %2 = alloca i32, align 4
  store i32 %0, ptr %2, align 4, !tbaa !10
  %3 = load i32, ptr %2, align 4, !tbaa !10
  %4 = and i32 %3, 1
  ret i32 %4
}

; Function Attrs: inlinehint nounwind uwtable
define internal i32 @Abc_Lit2Var(i32 noundef %0) #2 {
  %2 = alloca i32, align 4
  store i32 %0, ptr %2, align 4, !tbaa !10
  %3 = load i32, ptr %2, align 4, !tbaa !10
  %4 = ashr i32 %3, 1
  ret i32 %4
}

; Function Attrs: inlinehint nounwind uwtable
define internal i32 @Vec_IntEntry(ptr noundef %0, i32 noundef %1) #2 {
  %3 = alloca ptr, align 8
  %4 = alloca i32, align 4
  store ptr %0, ptr %3, align 8, !tbaa !3
  store i32 %1, ptr %4, align 4, !tbaa !10
  %5 = load ptr, ptr %3, align 8, !tbaa !3
  %6 = getelementptr inbounds nuw %struct.Vec_Int_t_, ptr %5, i32 0, i32 2
  %7 = load ptr, ptr %6, align 8, !tbaa !12
  %8 = load i32, ptr %4, align 4, !tbaa !10
  %9 = sext i32 %8 to i64
  %10 = getelementptr inbounds i32, ptr %7, i64 %9
  %11 = load i32, ptr %10, align 4, !tbaa !10
  ret i32 %11
}

; Function Attrs: inlinehint nounwind uwtable
define internal i32 @Vec_IntSize(ptr noundef %0) #2 {
  %2 = alloca ptr, align 8
  store ptr %0, ptr %2, align 8, !tbaa !3
  %3 = load ptr, ptr %2, align 8, !tbaa !3
  %4 = getelementptr inbounds nuw %struct.Vec_Int_t_, ptr %3, i32 0, i32 1
  %5 = load i32, ptr %4, align 4, !tbaa !14
  ret i32 %5
}

; Function Attrs: inlinehint nounwind uwtable
define internal void @Vec_StrFill(ptr noundef %0, i32 noundef %1, i8 noundef signext %2) #2 {
  %4 = alloca ptr, align 8
  %5 = alloca i32, align 4
  %6 = alloca i8, align 1
  %7 = alloca i32, align 4
  store ptr %0, ptr %4, align 8, !tbaa !19
  store i32 %1, ptr %5, align 4, !tbaa !10
  store i8 %2, ptr %6, align 1, !tbaa !22
  call void @llvm.lifetime.start.p0(i64 4, ptr %7) #10
  %8 = load ptr, ptr %4, align 8, !tbaa !19
  %9 = load i32, ptr %5, align 4, !tbaa !10
  call void @Vec_StrGrow(ptr noundef %8, i32 noundef %9)
  %10 = load i32, ptr %5, align 4, !tbaa !10
  %11 = load ptr, ptr %4, align 8, !tbaa !19
  %12 = getelementptr inbounds nuw %struct.Vec_Str_t_, ptr %11, i32 0, i32 1
  store i32 %10, ptr %12, align 4, !tbaa !23
  store i32 0, ptr %7, align 4, !tbaa !10
  br label %13

13:                                               ; preds = %27, %3
  %14 = load i32, ptr %7, align 4, !tbaa !10
  %15 = load ptr, ptr %4, align 8, !tbaa !19
  %16 = getelementptr inbounds nuw %struct.Vec_Str_t_, ptr %15, i32 0, i32 1
  %17 = load i32, ptr %16, align 4, !tbaa !23
  %18 = icmp slt i32 %14, %17
  br i1 %18, label %19, label %30

19:                                               ; preds = %13
  %20 = load i8, ptr %6, align 1, !tbaa !22
  %21 = load ptr, ptr %4, align 8, !tbaa !19
  %22 = getelementptr inbounds nuw %struct.Vec_Str_t_, ptr %21, i32 0, i32 2
  %23 = load ptr, ptr %22, align 8, !tbaa !26
  %24 = load i32, ptr %7, align 4, !tbaa !10
  %25 = sext i32 %24 to i64
  %26 = getelementptr inbounds i8, ptr %23, i64 %25
  store i8 %20, ptr %26, align 1, !tbaa !22
  br label %27

27:                                               ; preds = %19
  %28 = load i32, ptr %7, align 4, !tbaa !10
  %29 = add nsw i32 %28, 1
  store i32 %29, ptr %7, align 4, !tbaa !10
  br label %13, !llvm.loop !27

30:                                               ; preds = %13
  call void @llvm.lifetime.end.p0(i64 4, ptr %7) #10
  ret void
}

; Function Attrs: nounwind uwtable
define void @Div_CubePrintOne(ptr noundef %0, ptr noundef %1, i32 noundef %2) #0 {
  %4 = alloca ptr, align 8
  %5 = alloca ptr, align 8
  %6 = alloca i32, align 4
  %7 = alloca i32, align 4
  %8 = alloca i32, align 4
  store ptr %0, ptr %4, align 8, !tbaa !3
  store ptr %1, ptr %5, align 8, !tbaa !19
  store i32 %2, ptr %6, align 4, !tbaa !10
  call void @llvm.lifetime.start.p0(i64 4, ptr %7) #10
  call void @llvm.lifetime.start.p0(i64 4, ptr %8) #10
  %9 = load ptr, ptr %5, align 8, !tbaa !19
  %10 = load i32, ptr %6, align 4, !tbaa !10
  call void @Vec_StrFill(ptr noundef %9, i32 noundef %10, i8 noundef signext 45)
  store i32 0, ptr %7, align 4, !tbaa !10
  br label %11

11:                                               ; preds = %31, %3
  %12 = load i32, ptr %7, align 4, !tbaa !10
  %13 = load ptr, ptr %4, align 8, !tbaa !3
  %14 = call i32 @Vec_IntSize(ptr noundef %13)
  %15 = icmp slt i32 %12, %14
  br i1 %15, label %16, label %20

16:                                               ; preds = %11
  %17 = load ptr, ptr %4, align 8, !tbaa !3
  %18 = load i32, ptr %7, align 4, !tbaa !10
  %19 = call i32 @Vec_IntEntry(ptr noundef %17, i32 noundef %18)
  store i32 %19, ptr %8, align 4, !tbaa !10
  br label %20

20:                                               ; preds = %16, %11
  %21 = phi i1 [ false, %11 ], [ true, %16 ]
  br i1 %21, label %22, label %34

22:                                               ; preds = %20
  %23 = load ptr, ptr %5, align 8, !tbaa !19
  %24 = load i32, ptr %8, align 4, !tbaa !10
  %25 = call i32 @Abc_Lit2Var(i32 noundef %24)
  %26 = load i32, ptr %8, align 4, !tbaa !10
  %27 = call i32 @Abc_LitIsCompl(i32 noundef %26)
  %28 = icmp ne i32 %27, 0
  %29 = select i1 %28, i32 48, i32 49
  %30 = trunc i32 %29 to i8
  call void @Vec_StrWriteEntry(ptr noundef %23, i32 noundef %25, i8 noundef signext %30)
  br label %31

31:                                               ; preds = %22
  %32 = load i32, ptr %7, align 4, !tbaa !10
  %33 = add nsw i32 %32, 1
  store i32 %33, ptr %7, align 4, !tbaa !10
  br label %11, !llvm.loop !21

34:                                               ; preds = %20
  %35 = load ptr, ptr %5, align 8, !tbaa !19
  %36 = call ptr @Vec_StrArray(ptr noundef %35)
  %37 = call i32 (ptr, ...) @printf(ptr noundef @.str, ptr noundef %36)
  call void @llvm.lifetime.end.p0(i64 4, ptr %8) #10
  call void @llvm.lifetime.end.p0(i64 4, ptr %7) #10
  ret void
}