; Function Attrs: nounwind uwtable
define void @Div_CubePrintOne(ptr noundef readonly captures(none) %0, ptr noundef captures(none) initializes((4, 8)) %1, i32 noundef %2) local_unnamed_addr #2 {
  %4 = load i32, ptr %1, align 8, !tbaa !16
  %.not.i.i = icmp slt i32 %4, %2
  br i1 %.not.i.i, label %5, label %Vec_StrGrow.exit.i

5:                                                ; preds = %3
  %6 = getelementptr inbounds nuw i8, ptr %1, i64 8
  %7 = load ptr, ptr %6, align 8, !tbaa !19
  %.not9.i.i = icmp eq ptr %7, null
  %8 = sext i32 %2 to i64
  br i1 %.not9.i.i, label %11, label %9

9:                                                ; preds = %5
  %10 = tail call ptr @realloc(ptr noundef nonnull %7, i64 noundef %8) #16
  br label %13

11:                                               ; preds = %5
  %12 = tail call noalias ptr @malloc(i64 noundef %8) #17
  br label %13

13:                                               ; preds = %11, %9
  %14 = phi ptr [ %10, %9 ], [ %12, %11 ]
  store ptr %14, ptr %6, align 8, !tbaa !19
  store i32 %2, ptr %1, align 8, !tbaa !16
  br label %Vec_StrGrow.exit.i

Vec_StrGrow.exit.i:                               ; preds = %13, %3
  %15 = getelementptr inbounds nuw i8, ptr %1, i64 4
  store i32 %2, ptr %15, align 4, !tbaa !20
  %16 = icmp sgt i32 %2, 0
  br i1 %16, label %.lr.ph.i, label %Vec_StrFill.exit

.lr.ph.i:                                         ; preds = %Vec_StrGrow.exit.i
  %17 = getelementptr inbounds nuw i8, ptr %1, i64 8
  br label %18

18:                                               ; preds = %18, %.lr.ph.i
  %indvars.iv.i = phi i64 [ 0, %.lr.ph.i ], [ %indvars.iv.next.i, %18 ]
  %19 = load ptr, ptr %17, align 8, !tbaa !19
  %20 = getelementptr inbounds nuw i8, ptr %19, i64 %indvars.iv.i
  store i8 45, ptr %20, align 1, !tbaa !21
  %indvars.iv.next.i = add nuw nsw i64 %indvars.iv.i, 1
  %21 = load i32, ptr %15, align 4, !tbaa !20
  %22 = sext i32 %21 to i64
  %23 = icmp slt i64 %indvars.iv.next.i, %22
  br i1 %23, label %18, label %Vec_StrFill.exit, !llvm.loop !22

Vec_StrFill.exit:                                 ; preds = %18, %Vec_StrGrow.exit.i
  %24 = getelementptr i8, ptr %0, i64 4
  %.val13 = load i32, ptr %24, align 4, !tbaa !10
  %25 = icmp sgt i32 %.val13, 0
  br i1 %25, label %.lr.ph, label %.critedge

.lr.ph:                                           ; preds = %Vec_StrFill.exit
  %26 = getelementptr i8, ptr %0, i64 8
  %27 = getelementptr i8, ptr %1, i64 8
  br label %28

28:                                               ; preds = %.lr.ph, %28
  %indvars.iv = phi i64 [ 0, %.lr.ph ], [ %indvars.iv.next, %28 ]
  %.val10 = load ptr, ptr %26, align 8, !tbaa !3
  %29 = getelementptr inbounds nuw i32, ptr %.val10, i64 %indvars.iv
  %30 = load i32, ptr %29, align 4, !tbaa !11
  %31 = ashr i32 %30, 1
  %32 = and i32 %30, 1
  %.not = icmp eq i32 %32, 0
  %33 = select i1 %.not, i8 49, i8 48
  %.val11 = load ptr, ptr %27, align 8, !tbaa !19
  %34 = sext i32 %31 to i64
  %35 = getelementptr inbounds i8, ptr %.val11, i64 %34
  store i8 %33, ptr %35, align 1, !tbaa !21
  %indvars.iv.next = add nuw nsw i64 %indvars.iv, 1
  %.val = load i32, ptr %24, align 4, !tbaa !10
  %36 = sext i32 %.val to i64
  %37 = icmp slt i64 %indvars.iv.next, %36
  br i1 %37, label %28, label %.critedge, !llvm.loop !23

.critedge:                                        ; preds = %28, %Vec_StrFill.exit
  %38 = getelementptr i8, ptr %1, i64 8
  %.val12 = load ptr, ptr %38, align 8, !tbaa !19
  %puts = tail call i32 @puts(ptr nonnull dereferenceable(1) %.val12)
  ret void
}